; Function Attrs: mustprogress nofree norecurse nosync nounwind willreturn memory(read, inaccessiblemem: none) uwtable
define noundef zeroext i1 @_ZN6casadi10startswithERKNSt7__cxx1112basic_stringIcSt11char_traitsIcESaIcEEES7_(ptr noundef nonnull readonly align 8 captures(none) dereferenceable(32) %0, ptr noundef nonnull readonly align 8 captures(none) dereferenceable(32) %1) local_unnamed_addr #8 {
  %3 = getelementptr inbounds nuw i8, ptr %1, i64 8
  %4 = load i64, ptr %3, align 8, !tbaa !14
  %5 = getelementptr inbounds nuw i8, ptr %0, i64 8
  %6 = load i64, ptr %5, align 8, !tbaa !14
  %7 = icmp ugt i64 %4, %6
  br i1 %7, label %.loopexit, label %.preheader

.preheader:                                       ; preds = %2
  %8 = icmp eq i64 %4, 0
  br i1 %8, label %.loopexit, label %.lr.ph

.lr.ph:                                           ; preds = %.preheader
  %9 = load ptr, ptr %0, align 8, !tbaa !6
  %10 = load ptr, ptr %1, align 8, !tbaa !6
  br label %11

11:                                               ; preds = %11, %.lr.ph
  %.01012 = phi i64 [ 0, %.lr.ph ], [ %16, %11 ]
  %12 = getelementptr inbounds nuw i8, ptr %9, i64 %.01012
  %13 = load i8, ptr %12, align 1, !tbaa !15
  %14 = getelementptr inbounds nuw i8, ptr %10, i64 %.01012
  %15 = load i8, ptr %14, align 1, !tbaa !15
  %.not = icmp eq i8 %13, %15
  %16 = add nuw i64 %.01012, 1
  %exitcond.not = icmp ne i64 %16, %4
  %or.cond.not = select i1 %.not, i1 %exitcond.not, i1 false
  br i1 %or.cond.not, label %11, label %.loopexit, !llvm.loop !132

.loopexit:                                        ; preds = %11, %.preheader, %2
  %.011 = phi i1 [ false, %2 ], [ true, %.preheader ], [ %.not, %11 ]
  ret i1 %.011
}